; Function Attrs: mustprogress nounwind uwtable
define dso_local void @_ZN21OffMeshConnectionToolD0Ev(ptr noundef nonnull align 8 dereferenceable(31) %0) unnamed_addr #1 align 2 personality ptr @__gxx_personality_v0 {
  store ptr getelementptr inbounds ({ [14 x ptr] }, ptr @_ZTV21OffMeshConnectionTool, i64 0, i32 0, i64 2), ptr %0, align 8
  %2 = getelementptr inbounds i8, ptr %0, i64 8
  %3 = load ptr, ptr %2, align 8
  %.not.i = icmp eq ptr %3, null
  br i1 %.not.i, label %_ZN21OffMeshConnectionToolD2Ev.exit, label %4

4:                                                ; preds = %1
  %5 = getelementptr inbounds i8, ptr %0, i64 30
  %6 = load i8, ptr %5, align 2
  %7 = getelementptr inbounds i8, ptr %3, i64 40
  store i8 %6, ptr %7, align 8
  br label %_ZN21OffMeshConnectionToolD2Ev.exit

_ZN21OffMeshConnectionToolD2Ev.exit:              ; preds = %1, %4
  tail call void @_ZN10SampleToolD2Ev(ptr noundef nonnull align 8 dereferenceable(8) %0) #11
  tail call void @_ZdlPv(ptr noundef nonnull %0) #12
  ret void
}